target datalayout = "e-m:e-p270:32:32-p271:32:32-p272:64:64-i64:64-i128:128-f80:128-n8:16:32:64-S128"
target triple = "x86_64-pc-linux-gnu"

%struct.ggml_backend_buffer_i = type { ptr, ptr, ptr, ptr, ptr, ptr, ptr, ptr, ptr }
%struct.ggml_backend_buffer = type { %struct.ggml_backend_buffer_i, ptr, ptr, i64, i32 }
%struct.ggml_tensor = type { i32, ptr, [4 x i64], [4 x i64], i32, [16 x i32], i32, [10 x ptr], ptr, i64, ptr, [64 x i8], ptr, [8 x i8] }
%struct.ggml_backend = type { ptr, %struct.ggml_backend_i, ptr, ptr }
%struct.ggml_backend_i = type { ptr, ptr, ptr, ptr, ptr, ptr, ptr, ptr, ptr, ptr, ptr, ptr, ptr }
%struct.ggml_hash_set = type { i64, ptr, ptr }
%struct.ggml_cgraph = type { i32, i32, i32, ptr, ptr, ptr, ptr, %struct.ggml_hash_set, i32 }
%struct.ggml_backend_graph_copy = type { ptr, ptr, ptr, ptr }

; Function Attrs: mustprogress uwtable
define void @ggml_backend_buffer_free(ptr noundef %0) #0 {
  %2 = alloca ptr, align 8
  store ptr %0, ptr %2, align 8, !tbaa !24
  %3 = load ptr, ptr %2, align 8, !tbaa !24
  %4 = icmp eq ptr %3, null
  br i1 %4, label %5, label %6

5:                                                ; preds = %1
  br label %22

6:                                                ; preds = %1
  %7 = load ptr, ptr %2, align 8, !tbaa !24
  %8 = getelementptr inbounds nuw %struct.ggml_backend_buffer, ptr %7, i32 0, i32 0
  %9 = getelementptr inbounds nuw %struct.ggml_backend_buffer_i, ptr %8, i32 0, i32 0
  %10 = load ptr, ptr %9, align 8, !tbaa !33
  %11 = icmp ne ptr %10, null
  br i1 %11, label %12, label %18

12:                                               ; preds = %6
  %13 = load ptr, ptr %2, align 8, !tbaa !24
  %14 = getelementptr inbounds nuw %struct.ggml_backend_buffer, ptr %13, i32 0, i32 0
  %15 = getelementptr inbounds nuw %struct.ggml_backend_buffer_i, ptr %14, i32 0, i32 0
  %16 = load ptr, ptr %15, align 8, !tbaa !33
  %17 = load ptr, ptr %2, align 8, !tbaa !24
  call void %16(ptr noundef %17)
  br label %18

18:                                               ; preds = %12, %6
  %19 = load ptr, ptr %2, align 8, !tbaa !24
  %20 = icmp eq ptr %19, null
  br i1 %20, label %22, label %21

21:                                               ; preds = %18
  call void @_ZdlPvm(ptr noundef %19, i64 noundef 104) #17
  br label %22

22:                                               ; preds = %5, %21, %18
  ret void
}

; Function Attrs: mustprogress uwtable
define void @ggml_backend_synchronize(ptr noundef %0) #0 {
  %2 = alloca ptr, align 8
  store ptr %0, ptr %2, align 8, !tbaa !56
  %3 = load ptr, ptr %2, align 8, !tbaa !56
  %4 = getelementptr inbounds nuw %struct.ggml_backend, ptr %3, i32 0, i32 1
  %5 = getelementptr inbounds nuw %struct.ggml_backend_i, ptr %4, i32 0, i32 5
  %6 = load ptr, ptr %5, align 8, !tbaa !76
  %7 = icmp eq ptr %6, null
  br i1 %7, label %8, label %9

8:                                                ; preds = %1
  br label %15

9:                                                ; preds = %1
  %10 = load ptr, ptr %2, align 8, !tbaa !56
  %11 = getelementptr inbounds nuw %struct.ggml_backend, ptr %10, i32 0, i32 1
  %12 = getelementptr inbounds nuw %struct.ggml_backend_i, ptr %11, i32 0, i32 5
  %13 = load ptr, ptr %12, align 8, !tbaa !76
  %14 = load ptr, ptr %2, align 8, !tbaa !56
  call void %13(ptr noundef %14)
  br label %15

15:                                               ; preds = %9, %8
  ret void
}

; Function Attrs: mustprogress uwtable
define i32 @ggml_backend_graph_compute_async(ptr noundef %0, ptr noundef %1) #0 {
  %3 = alloca ptr, align 8
  %4 = alloca ptr, align 8
  store ptr %0, ptr %3, align 8, !tbaa !56
  store ptr %1, ptr %4, align 8, !tbaa !77
  %5 = load ptr, ptr %3, align 8, !tbaa !56
  %6 = getelementptr inbounds nuw %struct.ggml_backend, ptr %5, i32 0, i32 1
  %7 = getelementptr inbounds nuw %struct.ggml_backend_i, ptr %6, i32 0, i32 10
  %8 = load ptr, ptr %7, align 8, !tbaa !84
  %9 = load ptr, ptr %3, align 8, !tbaa !56
  %10 = load ptr, ptr %4, align 8, !tbaa !77
  %11 = call noundef i32 %8(ptr noundef %9, ptr noundef %10)
  ret i32 %11
}

; Function Attrs: mustprogress uwtable
define void @ggml_backend_graph_copy_free(ptr noundef byval(%struct.ggml_backend_graph_copy) align 8 %0) #0 {
  %2 = getelementptr inbounds nuw %struct.ggml_backend_graph_copy, ptr %0, i32 0, i32 0
  %3 = load ptr, ptr %2, align 8, !tbaa !248
  call void @ggml_backend_buffer_free(ptr noundef %3)
  %4 = getelementptr inbounds nuw %struct.ggml_backend_graph_copy, ptr %0, i32 0, i32 1
  %5 = load ptr, ptr %4, align 8, !tbaa !250
  call void @ggml_free(ptr noundef %5)
  %6 = getelementptr inbounds nuw %struct.ggml_backend_graph_copy, ptr %0, i32 0, i32 2
  %7 = load ptr, ptr %6, align 8, !tbaa !251
  call void @ggml_free(ptr noundef %7)
  ret void
}

; Function Attrs: mustprogress nounwind uwtable
define internal noundef zeroext i1 @_ZL15ggml_is_view_op7ggml_op(i32 noundef %0) #4 {
  %2 = alloca i32, align 4
  store i32 %0, ptr %2, align 4, !tbaa !261
  %3 = load i32, ptr %2, align 4, !tbaa !261
  %4 = icmp eq i32 %3, 34
  br i1 %4, label %14, label %5

5:                                                ; preds = %1
  %6 = load i32, ptr %2, align 4, !tbaa !261
  %7 = icmp eq i32 %6, 33
  br i1 %7, label %14, label %8

8:                                                ; preds = %5
  %9 = load i32, ptr %2, align 4, !tbaa !261
  %10 = icmp eq i32 %9, 35
  br i1 %10, label %14, label %11

11:                                               ; preds = %8
  %12 = load i32, ptr %2, align 4, !tbaa !261
  %13 = icmp eq i32 %12, 36
  br label %14

14:                                               ; preds = %11, %8, %5, %1
  %15 = phi i1 [ true, %8 ], [ true, %5 ], [ true, %1 ], [ %13, %11 ]
  ret i1 %15
}

; Function Attrs: mustprogress uwtable
define i32 @ggml_backend_graph_compute(ptr noundef %0, ptr noundef %1) #0 {
  %3 = alloca ptr, align 8
  %4 = alloca ptr, align 8
  %5 = alloca i32, align 4
  store ptr %0, ptr %3, align 8, !tbaa !56
  store ptr %1, ptr %4, align 8, !tbaa !77
  call void @llvm.lifetime.start.p0(i64 4, ptr %5) #15
  %6 = load ptr, ptr %3, align 8, !tbaa !56
  %7 = load ptr, ptr %4, align 8, !tbaa !77
  %8 = call i32 @ggml_backend_graph_compute_async(ptr noundef %6, ptr noundef %7)
  store i32 %8, ptr %5, align 4, !tbaa !82
  %9 = load ptr, ptr %3, align 8, !tbaa !56
  call void @ggml_backend_synchronize(ptr noundef %9)
  %10 = load i32, ptr %5, align 4, !tbaa !82
  call void @llvm.lifetime.end.p0(i64 4, ptr %5) #15
  ret i32 %10
}

; Function Attrs: mustprogress uwtable
define zeroext i1 @ggml_backend_compare_graph_backend(ptr noundef %0, ptr noundef %1, ptr noundef %2, ptr noundef %3, ptr noundef %4) #0 {
  %6 = alloca i1, align 1
  %7 = alloca ptr, align 8
  %8 = alloca ptr, align 8
  %9 = alloca ptr, align 8
  %10 = alloca ptr, align 8
  %11 = alloca ptr, align 8
  %12 = alloca %struct.ggml_backend_graph_copy, align 8
  %13 = alloca i32, align 4
  %14 = alloca ptr, align 8
  %15 = alloca ptr, align 8
  %16 = alloca i32, align 4
  %17 = alloca ptr, align 8
  %18 = alloca ptr, align 8
  %19 = alloca %struct.ggml_cgraph, align 8
  %20 = alloca %struct.ggml_cgraph, align 8
  %21 = alloca %struct.ggml_backend_graph_copy, align 8
  store ptr %0, ptr %7, align 8, !tbaa !56
  store ptr %1, ptr %8, align 8, !tbaa !56
  store ptr %2, ptr %9, align 8, !tbaa !77
  store ptr %3, ptr %10, align 8, !tbaa !15
  store ptr %4, ptr %11, align 8, !tbaa !15
  call void @llvm.lifetime.start.p0(i64 32, ptr %12) #15
  %22 = load ptr, ptr %8, align 8, !tbaa !56
  %23 = load ptr, ptr %9, align 8, !tbaa !77
  call void @ggml_backend_graph_copy(ptr dead_on_unwind writable sret(%struct.ggml_backend_graph_copy) align 8 %12, ptr noundef %22, ptr noundef %23)
  %24 = getelementptr inbounds nuw %struct.ggml_backend_graph_copy, ptr %12, i32 0, i32 0
  %25 = load ptr, ptr %24, align 8, !tbaa !248
  %26 = icmp eq ptr %25, null
  br i1 %26, label %27, label %28

27:                                               ; preds = %5
  store i1 false, ptr %6, align 1
  store i32 1, ptr %13, align 4
  br label %88

28:                                               ; preds = %5
  call void @llvm.lifetime.start.p0(i64 8, ptr %14) #15
  %29 = load ptr, ptr %9, align 8, !tbaa !77
  store ptr %29, ptr %14, align 8, !tbaa !77
  call void @llvm.lifetime.start.p0(i64 8, ptr %15) #15
  %30 = getelementptr inbounds nuw %struct.ggml_backend_graph_copy, ptr %12, i32 0, i32 3
  %31 = load ptr, ptr %30, align 8, !tbaa !252
  store ptr %31, ptr %15, align 8, !tbaa !77
  call void @llvm.lifetime.start.p0(i64 4, ptr %16) #15
  store i32 0, ptr %16, align 4, !tbaa !89
  br label %32

32:                                               ; preds = %83, %28
  %33 = load i32, ptr %16, align 4, !tbaa !89
  %34 = load ptr, ptr %14, align 8, !tbaa !77
  %35 = getelementptr inbounds nuw %struct.ggml_cgraph, ptr %34, i32 0, i32 1
  %36 = load i32, ptr %35, align 4, !tbaa !171
  %37 = icmp slt i32 %33, %36
  br i1 %37, label %39, label %38

38:                                               ; preds = %32
  store i32 2, ptr %13, align 4
  br label %86

39:                                               ; preds = %32
  call void @llvm.lifetime.start.p0(i64 8, ptr %17) #15
  %40 = load ptr, ptr %14, align 8, !tbaa !77
  %41 = getelementptr inbounds nuw %struct.ggml_cgraph, ptr %40, i32 0, i32 3
  %42 = load ptr, ptr %41, align 8, !tbaa !182
  %43 = load i32, ptr %16, align 4, !tbaa !89
  %44 = sext i32 %43 to i64
  %45 = getelementptr inbounds ptr, ptr %42, i64 %44
  %46 = load ptr, ptr %45, align 8, !tbaa !28
  store ptr %46, ptr %17, align 8, !tbaa !28
  call void @llvm.lifetime.start.p0(i64 8, ptr %18) #15
  %47 = load ptr, ptr %15, align 8, !tbaa !77
  %48 = getelementptr inbounds nuw %struct.ggml_cgraph, ptr %47, i32 0, i32 3
  %49 = load ptr, ptr %48, align 8, !tbaa !182
  %50 = load i32, ptr %16, align 4, !tbaa !89
  %51 = sext i32 %50 to i64
  %52 = getelementptr inbounds ptr, ptr %49, i64 %51
  %53 = load ptr, ptr %52, align 8, !tbaa !28
  store ptr %53, ptr %18, align 8, !tbaa !28
  call void @llvm.lifetime.start.p0(i64 80, ptr %19) #15
  %54 = load ptr, ptr %14, align 8, !tbaa !77
  %55 = load i32, ptr %16, align 4, !tbaa !89
  %56 = load i32, ptr %16, align 4, !tbaa !89
  %57 = add nsw i32 %56, 1
  call void @ggml_graph_view(ptr dead_on_unwind writable sret(%struct.ggml_cgraph) align 8 %19, ptr noundef %54, i32 noundef %55, i32 noundef %57)
  call void @llvm.lifetime.start.p0(i64 80, ptr %20) #15
  %58 = load ptr, ptr %15, align 8, !tbaa !77
  %59 = load i32, ptr %16, align 4, !tbaa !89
  %60 = load i32, ptr %16, align 4, !tbaa !89
  %61 = add nsw i32 %60, 1
  call void @ggml_graph_view(ptr dead_on_unwind writable sret(%struct.ggml_cgraph) align 8 %20, ptr noundef %58, i32 noundef %59, i32 noundef %61)
  %62 = load ptr, ptr %7, align 8, !tbaa !56
  %63 = call i32 @ggml_backend_graph_compute(ptr noundef %62, ptr noundef %19)
  %64 = load ptr, ptr %8, align 8, !tbaa !56
  %65 = call i32 @ggml_backend_graph_compute(ptr noundef %64, ptr noundef %20)
  %66 = load ptr, ptr %17, align 8, !tbaa !28
  %67 = getelementptr inbounds nuw %struct.ggml_tensor, ptr %66, i32 0, i32 4
  %68 = load i32, ptr %67, align 8, !tbaa !184
  %69 = call noundef zeroext i1 @_ZL15ggml_is_view_op7ggml_op(i32 noundef %68)
  br i1 %69, label %70, label %71

70:                                               ; preds = %39
  store i32 4, ptr %13, align 4
  br label %80

71:                                               ; preds = %39
  %72 = load ptr, ptr %10, align 8, !tbaa !15
  %73 = load i32, ptr %16, align 4, !tbaa !89
  %74 = load ptr, ptr %17, align 8, !tbaa !28
  %75 = load ptr, ptr %18, align 8, !tbaa !28
  %76 = load ptr, ptr %11, align 8, !tbaa !15
  %77 = call noundef zeroext i1 %72(i32 noundef %73, ptr noundef %74, ptr noundef %75, ptr noundef %76)
  br i1 %77, label %79, label %78

78:                                               ; preds = %71
  store i32 2, ptr %13, align 4
  br label %80

79:                                               ; preds = %71
  store i32 0, ptr %13, align 4
  br label %80

80:                                               ; preds = %79, %78, %70
  call void @llvm.lifetime.end.p0(i64 80, ptr %20) #15
  call void @llvm.lifetime.end.p0(i64 80, ptr %19) #15
  call void @llvm.lifetime.end.p0(i64 8, ptr %18) #15
  call void @llvm.lifetime.end.p0(i64 8, ptr %17) #15
  %81 = load i32, ptr %13, align 4
  switch i32 %81, label %86 [
    i32 0, label %82
    i32 4, label %83
  ]

82:                                               ; preds = %80
  br label %83

83:                                               ; preds = %82, %80
  %84 = load i32, ptr %16, align 4, !tbaa !89
  %85 = add nsw i32 %84, 1
  store i32 %85, ptr %16, align 4, !tbaa !89
  br label %32, !llvm.loop !259

86:                                               ; preds = %80, %38
  call void @llvm.lifetime.end.p0(i64 4, ptr %16) #15
  br label %87

87:                                               ; preds = %86
  call void @llvm.memcpy.p0.p0.i64(ptr align 8 %21, ptr align 8 %12, i64 32, i1 false), !tbaa.struct !260
  call void @ggml_backend_graph_copy_free(ptr noundef byval(%struct.ggml_backend_graph_copy) align 8 %21)
  store i1 true, ptr %6, align 1
  store i32 1, ptr %13, align 4
  call void @llvm.lifetime.end.p0(i64 8, ptr %15) #15
  call void @llvm.lifetime.end.p0(i64 8, ptr %14) #15
  br label %88

88:                                               ; preds = %87, %27
  call void @llvm.lifetime.end.p0(i64 32, ptr %12) #15
  %89 = load i1, ptr %6, align 1
  ret i1 %89
}