; Function Attrs: mustprogress uwtable
define noundef zeroext i1 @ggml_backend_compare_graph_backend(ptr noundef %0, ptr noundef %1, ptr noundef %2, ptr noundef readonly captures(none) %3, ptr noundef %4) local_unnamed_addr #0 {
  %6 = alloca %struct.ggml_backend_graph_copy, align 8
  %7 = alloca %struct.ggml_cgraph, align 8
  %8 = alloca %struct.ggml_cgraph, align 8
  call void @llvm.lifetime.start.p0(i64 32, ptr nonnull %6) #26
  call void @ggml_backend_graph_copy(ptr dead_on_unwind nonnull writable sret(%struct.ggml_backend_graph_copy) align 8 %6, ptr noundef %1, ptr noundef %2)
  %9 = load ptr, ptr %6, align 8, !tbaa !222
  %10 = icmp ne ptr %9, null
  br i1 %10, label %11, label %52

11:                                               ; preds = %5
  %12 = getelementptr inbounds nuw i8, ptr %6, i64 24
  %13 = load ptr, ptr %12, align 8, !tbaa !227
  %14 = getelementptr inbounds nuw i8, ptr %2, i64 4
  %15 = load i32, ptr %14, align 4, !tbaa !147
  %16 = icmp sgt i32 %15, 0
  br i1 %16, label %.lr.ph, label %.loopexit

.lr.ph:                                           ; preds = %11
  %17 = getelementptr inbounds nuw i8, ptr %2, i64 16
  %18 = getelementptr inbounds nuw i8, ptr %13, i64 16
  %19 = getelementptr inbounds nuw i8, ptr %0, i64 88
  %20 = getelementptr inbounds nuw i8, ptr %0, i64 48
  %21 = getelementptr inbounds nuw i8, ptr %1, i64 88
  %22 = getelementptr inbounds nuw i8, ptr %1, i64 48
  br label %23

23:                                               ; preds = %.lr.ph, %select.unfold
  %indvars.iv = phi i64 [ 0, %.lr.ph ], [ %indvars.iv.next, %select.unfold ]
  %24 = load ptr, ptr %17, align 8, !tbaa !161
  %25 = getelementptr inbounds nuw ptr, ptr %24, i64 %indvars.iv
  %26 = load ptr, ptr %25, align 8, !tbaa !154
  %27 = load ptr, ptr %18, align 8, !tbaa !161
  %28 = getelementptr inbounds nuw ptr, ptr %27, i64 %indvars.iv
  %29 = load ptr, ptr %28, align 8, !tbaa !154
  call void @llvm.lifetime.start.p0(i64 80, ptr nonnull %7) #26
  %indvars.iv.next = add nuw nsw i64 %indvars.iv, 1
  %indvars = trunc i64 %indvars.iv.next to i32
  %30 = trunc nuw nsw i64 %indvars.iv to i32
  call void @ggml_graph_view(ptr dead_on_unwind nonnull writable sret(%struct.ggml_cgraph) align 8 %7, ptr noundef nonnull %2, i32 noundef %30, i32 noundef %indvars)
  call void @llvm.lifetime.start.p0(i64 80, ptr nonnull %8) #26
  call void @ggml_graph_view(ptr dead_on_unwind nonnull writable sret(%struct.ggml_cgraph) align 8 %8, ptr noundef %13, i32 noundef %30, i32 noundef %indvars)
  %31 = load ptr, ptr %19, align 8, !tbaa !70
  %32 = call noundef i32 %31(ptr noundef %0, ptr noundef nonnull %7)
  %33 = load ptr, ptr %20, align 8, !tbaa !66
  %34 = icmp eq ptr %33, null
  br i1 %34, label %ggml_backend_graph_compute.exit, label %35

35:                                               ; preds = %23
  call void %33(ptr noundef nonnull %0)
  br label %ggml_backend_graph_compute.exit

ggml_backend_graph_compute.exit:                  ; preds = %23, %35
  %36 = load ptr, ptr %21, align 8, !tbaa !70
  %37 = call noundef i32 %36(ptr noundef %1, ptr noundef nonnull %8)
  %38 = load ptr, ptr %22, align 8, !tbaa !66
  %39 = icmp eq ptr %38, null
  br i1 %39, label %ggml_backend_graph_compute.exit27, label %40

40:                                               ; preds = %ggml_backend_graph_compute.exit
  call void %38(ptr noundef nonnull %1)
  br label %ggml_backend_graph_compute.exit27

ggml_backend_graph_compute.exit27:                ; preds = %ggml_backend_graph_compute.exit, %40
  %41 = getelementptr inbounds nuw i8, ptr %26, i64 80
  %42 = load i32, ptr %41, align 8, !tbaa !163
  %43 = add i32 %42, -33
  %spec.select.i = icmp ult i32 %43, 4
  br i1 %spec.select.i, label %select.unfold, label %44

44:                                               ; preds = %ggml_backend_graph_compute.exit27
  %45 = call noundef zeroext i1 %3(i32 noundef %30, ptr noundef nonnull %26, ptr noundef %29, ptr noundef %4)
  br i1 %45, label %select.unfold, label %46

46:                                               ; preds = %44
  call void @llvm.lifetime.end.p0(i64 80, ptr nonnull %8) #26
  call void @llvm.lifetime.end.p0(i64 80, ptr nonnull %7) #26
  br label %.loopexit

select.unfold:                                    ; preds = %44, %ggml_backend_graph_compute.exit27
  call void @llvm.lifetime.end.p0(i64 80, ptr nonnull %8) #26
  call void @llvm.lifetime.end.p0(i64 80, ptr nonnull %7) #26
  %47 = load i32, ptr %14, align 4, !tbaa !147
  %48 = sext i32 %47 to i64
  %49 = icmp slt i64 %indvars.iv.next, %48
  br i1 %49, label %23, label %.loopexit, !llvm.loop !233

.loopexit:                                        ; preds = %select.unfold, %11, %46
  %.sroa.2.0..sroa_idx = getelementptr inbounds nuw i8, ptr %6, i64 8
  %.sroa.2.0.copyload = load ptr, ptr %.sroa.2.0..sroa_idx, align 8, !tbaa !234
  %.sroa.3.0..sroa_idx = getelementptr inbounds nuw i8, ptr %6, i64 16
  %.sroa.3.0.copyload = load ptr, ptr %.sroa.3.0..sroa_idx, align 8, !tbaa !234
  %50 = load ptr, ptr %9, align 8, !tbaa !27
  %.not.i.i = icmp eq ptr %50, null
  br i1 %.not.i.i, label %ggml_backend_graph_copy_free.exit, label %51

51:                                               ; preds = %.loopexit
  call void %50(ptr noundef nonnull %9)
  br label %ggml_backend_graph_copy_free.exit

ggml_backend_graph_copy_free.exit:                ; preds = %.loopexit, %51
  call void @_ZdlPvm(ptr noundef nonnull %9, i64 noundef 104) #23
  call void @ggml_free(ptr noundef %.sroa.2.0.copyload)
  call void @ggml_free(ptr noundef %.sroa.3.0.copyload)
  br label %52

52:                                               ; preds = %5, %ggml_backend_graph_copy_free.exit
  call void @llvm.lifetime.end.p0(i64 32, ptr nonnull %6) #26
  ret i1 %10
}